; Function Attrs: nounwind uwtable
define dso_local ptr @PyStaticMethod_New(ptr noundef %0) local_unnamed_addr #0 {
  %2 = tail call ptr @PyType_GenericAlloc(ptr noundef nonnull @PyStaticMethod_Type, i64 noundef 0) #8
  %.not = icmp eq ptr %2, null
  br i1 %.not, label %9, label %3

3:                                                ; preds = %1
  %4 = load i32, ptr %0, align 8, !tbaa !99
  %5 = icmp slt i32 %4, 0
  br i1 %5, label %_Py_NewRef.exit, label %6

6:                                                ; preds = %3
  %7 = add nuw i32 %4, 1
  store i32 %7, ptr %0, align 8, !tbaa !99
  br label %_Py_NewRef.exit

_Py_NewRef.exit:                                  ; preds = %3, %6
  %8 = getelementptr inbounds nuw i8, ptr %2, i64 16
  store ptr %0, ptr %8, align 8, !tbaa !156
  br label %9

9:                                                ; preds = %_Py_NewRef.exit, %1
  ret ptr %2
}